; Function Attrs: nounwind uwtable
define i32 @stbsp_sprintf(ptr noundef %0, ptr noundef %1, ...) local_unnamed_addr #4 {
  %3 = alloca [1 x %struct.__va_list_tag], align 16
  call void @llvm.lifetime.start.p0(i64 24, ptr nonnull %3) #13
  call void @llvm.va_start.p0(ptr nonnull %3)
  %4 = call i32 @stbsp_vsprintfcb(ptr noundef null, ptr noundef null, ptr noundef %0, ptr noundef %1, ptr noundef nonnull %3)
  call void @llvm.va_end.p0(ptr nonnull %3)
  call void @llvm.lifetime.end.p0(i64 24, ptr nonnull %3) #13
  ret i32 %4
}